; ModuleID = 'bench/lean4/original/PLift.ll'
source_filename = "bench/lean4/original/PLift.ll"
target datalayout = "e-m:e-p270:32:32-p271:32:32-p272:64:64-i64:64-i128:128-f80:128-n8:16:32:64-S128"
target triple = "x86_64-pc-linux-gnu"

@_G_initialized = internal unnamed_addr global i1 false, align 1

; Function Attrs: nounwind uwtable
define ptr @l___private_Init_Data_PLift_0__decEqPLift____x40_Init_Data_PLift___hyg_3____rarg(ptr noundef %0, ptr noundef %1, ptr noundef %2) #0 {
  %4 = tail call ptr @lean_apply_2(ptr noundef %0, ptr noundef %1, ptr noundef %2) #3
  ret ptr %4
}

declare ptr @lean_apply_2(ptr noundef, ptr noundef, ptr noundef) local_unnamed_addr #1

; Function Attrs: nounwind uwtable
define noalias nonnull ptr @l___private_Init_Data_PLift_0__decEqPLift____x40_Init_Data_PLift___hyg_3_(ptr noundef readnone captures(none) %0) local_unnamed_addr #0 {
  tail call void @lean_inc_heartbeat() #3
  %2 = tail call noalias ptr @mi_malloc_small(i64 noundef 24) #3
  %3 = icmp eq ptr %2, null
  br i1 %3, label %4, label %lean_alloc_closure.exit

4:                                                ; preds = %1
  tail call void @lean_internal_panic_out_of_memory() #4
  unreachable

lean_alloc_closure.exit:                          ; preds = %1
  %5 = getelementptr inbounds nuw i8, ptr %2, i64 4
  store i32 1, ptr %2, align 4, !tbaa !4
  store i32 -184549352, ptr %5, align 4
  %6 = getelementptr inbounds nuw i8, ptr %2, i64 8
  store ptr @l___private_Init_Data_PLift_0__decEqPLift____x40_Init_Data_PLift___hyg_3____rarg, ptr %6, align 8, !tbaa !9
  %7 = getelementptr inbounds nuw i8, ptr %2, i64 16
  store i16 3, ptr %7, align 8, !tbaa !11
  %8 = getelementptr inbounds nuw i8, ptr %2, i64 18
  store i16 0, ptr %8, align 2, !tbaa !11
  ret ptr %2
}

; Function Attrs: nounwind uwtable
define ptr @l_instDecidableEqPLift___rarg(ptr noundef %0, ptr noundef %1, ptr noundef %2) #0 {
  %4 = tail call ptr @lean_apply_2(ptr noundef %0, ptr noundef %1, ptr noundef %2) #3
  ret ptr %4
}

; Function Attrs: nounwind uwtable
define noalias nonnull ptr @l_instDecidableEqPLift(ptr noundef readnone captures(none) %0) local_unnamed_addr #0 {
  tail call void @lean_inc_heartbeat() #3
  %2 = tail call noalias ptr @mi_malloc_small(i64 noundef 24) #3
  %3 = icmp eq ptr %2, null
  br i1 %3, label %4, label %lean_alloc_closure.exit

4:                                                ; preds = %1
  tail call void @lean_internal_panic_out_of_memory() #4
  unreachable

lean_alloc_closure.exit:                          ; preds = %1
  %5 = getelementptr inbounds nuw i8, ptr %2, i64 4
  store i32 1, ptr %2, align 4, !tbaa !4
  store i32 -184549352, ptr %5, align 4
  %6 = getelementptr inbounds nuw i8, ptr %2, i64 8
  store ptr @l_instDecidableEqPLift___rarg, ptr %6, align 8, !tbaa !9
  %7 = getelementptr inbounds nuw i8, ptr %2, i64 16
  store i16 3, ptr %7, align 8, !tbaa !11
  %8 = getelementptr inbounds nuw i8, ptr %2, i64 18
  store i16 0, ptr %8, align 2, !tbaa !11
  ret ptr %2
}

; Function Attrs: nounwind uwtable
define ptr @initialize_Init_Data_PLift(i8 noundef zeroext %0, ptr noundef readnone captures(none) %1) local_unnamed_addr #0 {
  %.b4 = load i1, ptr @_G_initialized, align 1
  br i1 %.b4, label %3, label %7

3:                                                ; preds = %2
  tail call void @lean_inc_heartbeat() #3
  %4 = tail call noalias ptr @mi_malloc_small(i64 noundef 24) #3
  %5 = icmp eq ptr %4, null
  br i1 %5, label %6, label %.sink.split

6:                                                ; preds = %3
  tail call void @lean_internal_panic_out_of_memory() #4
  unreachable

7:                                                ; preds = %2
  store i1 true, ptr @_G_initialized, align 1
  %8 = tail call ptr @initialize_Init_Core(i8 noundef zeroext %0, ptr noundef nonnull inttoptr (i64 1 to ptr)) #3
  %9 = getelementptr i8, ptr %8, i64 4
  %.val = load i32, ptr %9, align 4
  %.mask.i = and i32 %.val, -16777216
  %10 = icmp eq i32 %.mask.i, 16777216
  br i1 %10, label %24, label %11

11:                                               ; preds = %7
  %12 = load i32, ptr %8, align 4, !tbaa !4
  %13 = icmp sgt i32 %12, 1
  br i1 %13, label %14, label %16, !prof !13

14:                                               ; preds = %11
  %15 = add nsw i32 %12, -1
  store i32 %15, ptr %8, align 4, !tbaa !4
  br label %lean_dec_ref.exit

16:                                               ; preds = %11
  %.not.i = icmp eq i32 %12, 0
  br i1 %.not.i, label %lean_dec_ref.exit, label %17

17:                                               ; preds = %16
  tail call void @lean_dec_ref_cold(ptr noundef nonnull %8) #3
  br label %lean_dec_ref.exit

lean_dec_ref.exit:                                ; preds = %14, %16, %17
  tail call void @lean_inc_heartbeat() #3
  %18 = tail call noalias ptr @mi_malloc_small(i64 noundef 24) #3
  %19 = icmp eq ptr %18, null
  br i1 %19, label %20, label %.sink.split

20:                                               ; preds = %lean_dec_ref.exit
  tail call void @lean_internal_panic_out_of_memory() #4
  unreachable

.sink.split:                                      ; preds = %lean_dec_ref.exit, %3
  %.sink9 = phi ptr [ %4, %3 ], [ %18, %lean_dec_ref.exit ]
  %21 = getelementptr inbounds nuw i8, ptr %.sink9, i64 4
  store i32 1, ptr %.sink9, align 4, !tbaa !4
  store i32 131096, ptr %21, align 4
  %22 = getelementptr inbounds nuw i8, ptr %.sink9, i64 8
  store ptr inttoptr (i64 1 to ptr), ptr %22, align 8, !tbaa !9
  %23 = getelementptr inbounds nuw i8, ptr %.sink9, i64 16
  store ptr inttoptr (i64 1 to ptr), ptr %23, align 8, !tbaa !9
  br label %24

24:                                               ; preds = %.sink.split, %7
  %.0 = phi ptr [ %8, %7 ], [ %.sink9, %.sink.split ]
  ret ptr %.0
}

declare ptr @initialize_Init_Core(i8 noundef zeroext, ptr noundef) local_unnamed_addr #1

declare void @lean_inc_heartbeat() local_unnamed_addr #1

declare noalias ptr @mi_malloc_small(i64 noundef) local_unnamed_addr #1

; Function Attrs: noreturn
declare void @lean_internal_panic_out_of_memory() local_unnamed_addr #2

declare void @lean_dec_ref_cold(ptr noundef) local_unnamed_addr #1


!llvm.module.flags = !{!0, !1, !2, !3}

!0 = !{i32 1, !"wchar_size", i32 4}
!1 = !{i32 4, !"probe-stack", !"inline-asm"}
!2 = !{i32 8, !"PIC Level", i32 2}
!3 = !{i32 7, !"uwtable", i32 2}
!4 = !{!5, !6, i64 0}
!5 = !{!"", !6, i64 0, !6, i64 4, !6, i64 6, !6, i64 7}
!6 = !{!"int", !7, i64 0}
!7 = !{!"omnipotent char", !8, i64 0}
!8 = !{!"Simple C/C++ TBAA"}
!9 = !{!10, !10, i64 0}
!10 = !{!"any pointer", !7, i64 0}
!11 = !{!12, !12, i64 0}
!12 = !{!"short", !7, i64 0}
!13 = !{!"branch_weights", !"expected", i32 2000, i32 1}
